target datalayout = "e-m:e-p270:32:32-p271:32:32-p272:64:64-i64:64-i128:128-f80:128-n8:16:32:64-S128"
target triple = "x86_64-pc-linux-gnu"

%struct.Odc_Man_t_ = type { i32, i32, i32, i32, i32, i32, ptr, ptr, ptr, ptr, i32, i32, i32, ptr, i16, i16, ptr, i32, ptr, i32, i32, ptr, ptr, ptr, i32, i32, i32, i32, i32, i32, i64, i64, i64, i64, i64, i64, i64, i64 }
%struct.Odc_Obj_t_ = type { i16, i16, i16, i16, i32, i32 }

; Function Attrs: inlinehint nounwind uwtable
define internal zeroext i16 @Odc_Regular(i16 noundef zeroext %0) #5 {
  %2 = alloca i16, align 2
  store i16 %0, ptr %2, align 2, !tbaa !59
  %3 = load i16, ptr %2, align 2, !tbaa !59
  %4 = zext i16 %3 to i32
  %5 = and i32 %4, -2
  %6 = trunc i32 %5 to i16
  ret i16 %6
}

; Function Attrs: inlinehint nounwind uwtable
define internal zeroext i16 @Odc_ObjFanin1(ptr noundef %0) #5 {
  %2 = alloca ptr, align 8
  store ptr %0, ptr %2, align 8, !tbaa !115
  %3 = load ptr, ptr %2, align 8, !tbaa !115
  %4 = getelementptr inbounds nuw %struct.Odc_Obj_t_, ptr %3, i32 0, i32 1
  %5 = load i16, ptr %4, align 2, !tbaa !117
  %6 = call zeroext i16 @Odc_Regular(i16 noundef zeroext %5)
  ret i16 %6
}

; Function Attrs: inlinehint nounwind uwtable
define internal zeroext i16 @Odc_ObjFanin0(ptr noundef %0) #5 {
  %2 = alloca ptr, align 8
  store ptr %0, ptr %2, align 8, !tbaa !115
  %3 = load ptr, ptr %2, align 8, !tbaa !115
  %4 = getelementptr inbounds nuw %struct.Odc_Obj_t_, ptr %3, i32 0, i32 0
  %5 = load i16, ptr %4, align 4, !tbaa !116
  %6 = call zeroext i16 @Odc_Regular(i16 noundef zeroext %5)
  ret i16 %6
}

; Function Attrs: inlinehint nounwind uwtable
define internal void @Odc_ObjSetTravIdCurrent(ptr noundef %0, ptr noundef %1) #5 {
  %3 = alloca ptr, align 8
  %4 = alloca ptr, align 8
  store ptr %0, ptr %3, align 8, !tbaa !7
  store ptr %1, ptr %4, align 8, !tbaa !115
  %5 = load ptr, ptr %3, align 8, !tbaa !7
  %6 = getelementptr inbounds nuw %struct.Odc_Man_t_, ptr %5, i32 0, i32 15
  %7 = load i16, ptr %6, align 2, !tbaa !124
  %8 = load ptr, ptr %4, align 8, !tbaa !115
  %9 = getelementptr inbounds nuw %struct.Odc_Obj_t_, ptr %8, i32 0, i32 3
  store i16 %7, ptr %9, align 2, !tbaa !119
  ret void
}

; Function Attrs: inlinehint nounwind uwtable
define internal i32 @Odc_ObjIsTravIdCurrent(ptr noundef %0, ptr noundef %1) #5 {
  %3 = alloca ptr, align 8
  %4 = alloca ptr, align 8
  store ptr %0, ptr %3, align 8, !tbaa !7
  store ptr %1, ptr %4, align 8, !tbaa !115
  %5 = load ptr, ptr %4, align 8, !tbaa !115
  %6 = getelementptr inbounds nuw %struct.Odc_Obj_t_, ptr %5, i32 0, i32 3
  %7 = load i16, ptr %6, align 2, !tbaa !119
  %8 = zext i16 %7 to i32
  %9 = load ptr, ptr %3, align 8, !tbaa !7
  %10 = getelementptr inbounds nuw %struct.Odc_Man_t_, ptr %9, i32 0, i32 15
  %11 = load i16, ptr %10, align 2, !tbaa !124
  %12 = zext i16 %11 to i32
  %13 = icmp eq i32 %8, %12
  %14 = zext i1 %13 to i32
  ret i32 %14
}

; Function Attrs: inlinehint nounwind uwtable
define internal ptr @Odc_Lit2Obj(ptr noundef %0, i16 noundef zeroext %1) #5 {
  %3 = alloca ptr, align 8
  %4 = alloca i16, align 2
  store ptr %0, ptr %3, align 8, !tbaa !7
  store i16 %1, ptr %4, align 2, !tbaa !59
  %5 = load ptr, ptr %3, align 8, !tbaa !7
  %6 = getelementptr inbounds nuw %struct.Odc_Man_t_, ptr %5, i32 0, i32 13
  %7 = load ptr, ptr %6, align 8, !tbaa !28
  %8 = load i16, ptr %4, align 2, !tbaa !59
  %9 = zext i16 %8 to i32
  %10 = ashr i32 %9, 1
  %11 = sext i32 %10 to i64
  %12 = getelementptr inbounds %struct.Odc_Obj_t_, ptr %7, i64 %11
  ret ptr %12
}

; Function Attrs: inlinehint nounwind uwtable
define internal i32 @Odc_IsTerm(ptr noundef %0, i16 noundef zeroext %1) #5 {
  %3 = alloca ptr, align 8
  %4 = alloca i16, align 2
  store ptr %0, ptr %3, align 8, !tbaa !7
  store i16 %1, ptr %4, align 2, !tbaa !59
  %5 = load i16, ptr %4, align 2, !tbaa !59
  %6 = zext i16 %5 to i32
  %7 = ashr i32 %6, 1
  %8 = load ptr, ptr %3, align 8, !tbaa !7
  %9 = getelementptr inbounds nuw %struct.Odc_Man_t_, ptr %8, i32 0, i32 10
  %10 = load i32, ptr %9, align 8, !tbaa !29
  %11 = icmp sle i32 %7, %10
  %12 = zext i1 %11 to i32
  ret i32 %12
}

; Function Attrs: nounwind uwtable
define void @Abc_NtkDontCareSimulate_rec(ptr noundef %0, i16 noundef zeroext %1) #0 {
  %3 = alloca ptr, align 8
  %4 = alloca i16, align 2
  %5 = alloca ptr, align 8
  %6 = alloca i32, align 4
  store ptr %0, ptr %3, align 8, !tbaa !7
  store i16 %1, ptr %4, align 2, !tbaa !59
  call void @llvm.lifetime.start.p0(i64 8, ptr %5) #10
  %7 = load ptr, ptr %3, align 8, !tbaa !7
  %8 = load i16, ptr %4, align 2, !tbaa !59
  %9 = call i32 @Odc_IsTerm(ptr noundef %7, i16 noundef zeroext %8)
  %10 = icmp ne i32 %9, 0
  br i1 %10, label %11, label %12

11:                                               ; preds = %2
  store i32 1, ptr %6, align 4
  br label %32

12:                                               ; preds = %2
  %13 = load ptr, ptr %3, align 8, !tbaa !7
  %14 = load i16, ptr %4, align 2, !tbaa !59
  %15 = call ptr @Odc_Lit2Obj(ptr noundef %13, i16 noundef zeroext %14)
  store ptr %15, ptr %5, align 8, !tbaa !115
  %16 = load ptr, ptr %3, align 8, !tbaa !7
  %17 = load ptr, ptr %5, align 8, !tbaa !115
  %18 = call i32 @Odc_ObjIsTravIdCurrent(ptr noundef %16, ptr noundef %17)
  %19 = icmp ne i32 %18, 0
  br i1 %19, label %20, label %21

20:                                               ; preds = %12
  store i32 1, ptr %6, align 4
  br label %32

21:                                               ; preds = %12
  %22 = load ptr, ptr %3, align 8, !tbaa !7
  %23 = load ptr, ptr %5, align 8, !tbaa !115
  call void @Odc_ObjSetTravIdCurrent(ptr noundef %22, ptr noundef %23)
  %24 = load ptr, ptr %3, align 8, !tbaa !7
  %25 = load ptr, ptr %5, align 8, !tbaa !115
  %26 = call zeroext i16 @Odc_ObjFanin0(ptr noundef %25)
  call void @Abc_NtkDontCareSimulate_rec(ptr noundef %24, i16 noundef zeroext %26)
  %27 = load ptr, ptr %3, align 8, !tbaa !7
  %28 = load ptr, ptr %5, align 8, !tbaa !115
  %29 = call zeroext i16 @Odc_ObjFanin1(ptr noundef %28)
  call void @Abc_NtkDontCareSimulate_rec(ptr noundef %27, i16 noundef zeroext %29)
  %30 = load ptr, ptr %3, align 8, !tbaa !7
  %31 = load i16, ptr %4, align 2, !tbaa !59
  call void @Abc_NtkDontCareTruthOne(ptr noundef %30, i16 noundef zeroext %31)
  store i32 0, ptr %6, align 4
  br label %32

32:                                               ; preds = %21, %20, %11
  call void @llvm.lifetime.end.p0(i64 8, ptr %5) #10
  %33 = load i32, ptr %6, align 4
  switch i32 %33, label %35 [
    i32 0, label %34
    i32 1, label %34
  ]

34:                                               ; preds = %32, %32
  ret void

35:                                               ; preds = %32
  unreachable
}