; Function Attrs: nofree nosync nounwind memory(readwrite, inaccessiblemem: none) uwtable
define void @Abc_NtkDontCareSimulate_rec(ptr noundef %0, i16 noundef zeroext %1) local_unnamed_addr #11 {
  %3 = getelementptr i8, ptr %0, i64 56
  %.val17 = load i32, ptr %3, align 8, !tbaa !29
  %4 = lshr i16 %1, 1
  %5 = zext nneg i16 %4 to i32
  %.not20 = icmp slt i32 %.val17, %5
  br i1 %.not20, label %6, label %common.ret21

6:                                                ; preds = %2
  %7 = getelementptr i8, ptr %0, i64 72
  %.val = load ptr, ptr %7, align 8, !tbaa !28
  %8 = zext nneg i16 %4 to i64
  %9 = getelementptr inbounds nuw %struct.Odc_Obj_t_, ptr %.val, i64 %8
  %10 = getelementptr i8, ptr %0, i64 82
  %.val14 = load i16, ptr %10, align 2, !tbaa !119
  %11 = getelementptr i8, ptr %9, i64 6
  %.val15 = load i16, ptr %11, align 2, !tbaa !115
  %.not = icmp eq i16 %.val15, %.val14
  br i1 %.not, label %common.ret21, label %12

common.ret21:                                     ; preds = %6, %2, %12
  ret void

12:                                               ; preds = %6
  store i16 %.val14, ptr %11, align 2, !tbaa !115
  %.val18 = load i16, ptr %9, align 4, !tbaa !111
  %13 = and i16 %.val18, -2
  tail call void @Abc_NtkDontCareSimulate_rec(ptr noundef nonnull %0, i16 noundef zeroext %13)
  %14 = getelementptr i8, ptr %9, i64 2
  %.val19 = load i16, ptr %14, align 2, !tbaa !112
  %15 = and i16 %.val19, -2
  tail call void @Abc_NtkDontCareSimulate_rec(ptr noundef nonnull %0, i16 noundef zeroext %15)
  tail call void @Abc_NtkDontCareTruthOne(ptr noundef nonnull %0, i16 noundef zeroext %1)
  br label %common.ret21
}